(dp0
VServer
p1
Vcmsweb.cern.ch
p2
sVPort
p3
V
p4
sVRequestName
p5
V230602_105212:srothman_crab_srothman_ECON_Jun02-2023_Phase2C17I13M9_EGun_200PU_all
p6
sVvoRole
p7
VNULL
p8
sVvoGroup
p9
g4
sVinstance
p10
Vprod
p11
sVOriginalConfig
p12
ccopy_reg
_reconstructor
p13
(cWMCore.Configuration
Configuration
p14
c__builtin__
object
p15
Ntp16
Rp17
(dp18
V_internal_sections
p19
(lp20
VGeneral
p21
aVJobType
p22
aVData
p23
aVSite
p24
aVUser
p25
aVDebug
p26
asg21
g13
(cWMCore.Configuration
ConfigSection
p27
g15
Ntp28
Rp29
(dp30
V_internal_documentation
p31
g4
sV_internal_name
p32
g21
sV_internal_settings
p33
c__builtin__
set
p34
((lp35
VrequestName
p36
aVtransferOutputs
p37
aVtransferLogs
p38
aVworkArea
p39
atp40
Rp41
sV_internal_docstrings
p42
(dp43
sV_internal_children
p44
g34
((lp45
tp46
Rp47
sV_internal_parent_ref
p48
NsV_internal_skipChecks
p49
I00
sg37
I01
sg38
I01
sg39
Vcrab/srothman_ECON_Jun02-2023/
p50
sg36
Vsrothman_ECON_Jun02-2023_Phase2C17I13M9_EGun_200PU_all
p51
sbsg22
g13
(g27
g15
Ntp52
Rp53
(dp54
g31
g4
sg32
g22
sg33
g34
((lp55
VpyCfgParams
p56
aVpsetName
p57
aVpluginName
p58
aVnumCores
p59
aVallowUndistributedCMSSW
p60
aVmaxMemoryMB
p61
atp62
Rp63
sg42
(dp64
sg44
g34
((lp65
tp66
Rp67
sg48
Nsg49
I00
sg58
VAnalysis
p68
sg57
V/work/submit/srothman/hgcal/containerized/CMSSW_12_5_2_patch1/src/L1Trigger/L1THGCalUtilities/test/test_noAE.py
p69
sg60
I01
sg59
I4
sg61
I8000
sg56
(lp70
VisMC=True
p71
aVreportEvery=1000
p72
aVtag=ECON_Jun02-2023
p73
aVglobalTag=auto:phase2_realistic_T21
p74
asbsg23
g13
(g27
g15
Ntp75
Rp76
(dp77
g31
g4
sg32
g23
sg33
g34
((lp78
VoutLFNDirBase
p79
aVunitsPerJob
p80
aVsplitting
p81
aVlumiMask
p82
aVpublication
p83
aVoutputDatasetTag
p84
aVinputDBS
p85
aVinputDataset
p86
atp87
Rp88
sg42
(dp89
sg44
g34
((lp90
tp91
Rp92
sg48
Nsg49
I00
sg83
I00
sg79
V/store/user/srothman/ECON_Jun02-2023/Phase2C17I13M9/EGun_200PU
p93
sg84
VEGun_200PU_all
p94
sg85
Vglobal
p95
sg86
V/DoubleElectron_FlatPt-1To100-gun/Phase2Fall22DRMiniAOD-PU200_125X_mcRun4_realistic_v2-v1/GEN-SIM-DIGI-RAW-MINIAOD
p96
sg81
VFileBased
p97
sg82
g4
sg80
I1
sbsg24
g13
(g27
g15
Ntp98
Rp99
(dp100
g31
g4
sg32
g24
sg33
g34
((lp101
VstorageSite
p102
atp103
Rp104
sg42
(dp105
sg44
g34
((lp106
tp107
Rp108
sg48
Nsg49
I00
sg102
VT3_US_FNALLPC
p109
sbsg25
g13
(g27
g15
Ntp110
Rp111
(dp112
g31
g4
sg32
g25
sg33
g34
((lp113
tp114
Rp115
sg42
(dp116
sg44
g34
((lp117
tp118
Rp119
sg48
Nsg49
I00
sbsg26
g13
(g27
g15
Ntp120
Rp121
(dp122
g31
g4
sg32
g26
sg33
g34
((lp123
tp124
Rp125
sg42
(dp126
sg44
g34
((lp127
tp128
Rp129
sg48
Nsg49
I00
sbsbs.